target datalayout = "e-m:e-p270:32:32-p271:32:32-p272:64:64-i64:64-i128:128-f80:128-n8:16:32:64-S128"
target triple = "x86_64-pc-linux-gnu"

%"class.url::CanonOutputT" = type { ptr, ptr, i32, i32 }

; Function Attrs: inlinehint mustprogress nounwind uwtable
define linkonce_odr noundef zeroext i1 @_ZN4base16IsValidCharacterEj(i32 noundef %0) #2 comdat {
  %2 = alloca i32, align 4
  store i32 %0, ptr %2, align 4, !tbaa !8
  %3 = load i32, ptr %2, align 4, !tbaa !8
  %4 = icmp ult i32 %3, 55296
  br i1 %4, label %23, label %5

5:                                                ; preds = %1
  %6 = load i32, ptr %2, align 4, !tbaa !8
  %7 = icmp uge i32 %6, 57344
  br i1 %7, label %8, label %11

8:                                                ; preds = %5
  %9 = load i32, ptr %2, align 4, !tbaa !8
  %10 = icmp ult i32 %9, 64976
  br i1 %10, label %23, label %11

11:                                               ; preds = %8, %5
  %12 = load i32, ptr %2, align 4, !tbaa !8
  %13 = icmp ugt i32 %12, 65007
  br i1 %13, label %14, label %21

14:                                               ; preds = %11
  %15 = load i32, ptr %2, align 4, !tbaa !8
  %16 = icmp ule i32 %15, 1114111
  br i1 %16, label %17, label %21

17:                                               ; preds = %14
  %18 = load i32, ptr %2, align 4, !tbaa !8
  %19 = and i32 %18, 65534
  %20 = icmp ne i32 %19, 65534
  br label %21

21:                                               ; preds = %17, %14, %11
  %22 = phi i1 [ false, %14 ], [ false, %11 ], [ %20, %17 ]
  br label %23

23:                                               ; preds = %21, %8, %1
  %24 = phi i1 [ true, %8 ], [ true, %1 ], [ %22, %21 ]
  ret i1 %24
}

; Function Attrs: mustprogress uwtable
define linkonce_odr noundef zeroext i1 @_ZN3url12CanonOutputTIcE4GrowEi(ptr noundef nonnull align 8 dereferenceable(24) %0, i32 noundef %1) #0 comdat align 2 {
  %3 = alloca i1, align 1
  %4 = alloca ptr, align 8
  %5 = alloca i32, align 4
  %6 = alloca i32, align 4
  %7 = alloca i32, align 4
  store ptr %0, ptr %4, align 8, !tbaa !12
  store i32 %1, ptr %5, align 4, !tbaa !8
  %8 = load ptr, ptr %4, align 8
  call void @llvm.lifetime.start.p0(i64 4, ptr %6) #8
  %9 = getelementptr inbounds nuw %"class.url::CanonOutputT", ptr %8, i32 0, i32 2
  %10 = load i32, ptr %9, align 8, !tbaa !78
  %11 = icmp eq i32 %10, 0
  br i1 %11, label %12, label %13

12:                                               ; preds = %2
  br label %16

13:                                               ; preds = %2
  %14 = getelementptr inbounds nuw %"class.url::CanonOutputT", ptr %8, i32 0, i32 2
  %15 = load i32, ptr %14, align 8, !tbaa !78
  br label %16

16:                                               ; preds = %13, %12
  %17 = phi i32 [ 16, %12 ], [ %15, %13 ]
  store i32 %17, ptr %6, align 4, !tbaa !8
  br label %18

18:                                               ; preds = %25, %16
  %19 = load i32, ptr %6, align 4, !tbaa !8
  %20 = icmp sge i32 %19, 1073741824
  br i1 %20, label %21, label %22

21:                                               ; preds = %18
  store i1 false, ptr %3, align 1
  store i32 1, ptr %7, align 4
  br label %37

22:                                               ; preds = %18
  %23 = load i32, ptr %6, align 4, !tbaa !8
  %24 = mul nsw i32 %23, 2
  store i32 %24, ptr %6, align 4, !tbaa !8
  br label %25

25:                                               ; preds = %22
  %26 = load i32, ptr %6, align 4, !tbaa !8
  %27 = getelementptr inbounds nuw %"class.url::CanonOutputT", ptr %8, i32 0, i32 2
  %28 = load i32, ptr %27, align 8, !tbaa !78
  %29 = load i32, ptr %5, align 4, !tbaa !8
  %30 = add nsw i32 %28, %29
  %31 = icmp slt i32 %26, %30
  br i1 %31, label %18, label %32, !llvm.loop !79

32:                                               ; preds = %25
  %33 = load i32, ptr %6, align 4, !tbaa !8
  %34 = load ptr, ptr %8, align 8, !tbaa !80
  %35 = getelementptr inbounds ptr, ptr %34, i64 2
  %36 = load ptr, ptr %35, align 8
  call void %36(ptr noundef nonnull align 8 dereferenceable(24) %8, i32 noundef %33)
  store i1 true, ptr %3, align 1
  store i32 1, ptr %7, align 4
  br label %37

37:                                               ; preds = %32, %21
  call void @llvm.lifetime.end.p0(i64 4, ptr %6) #8
  %38 = load i1, ptr %3, align 1
  ret i1 %38
}

; Function Attrs: inlinehint mustprogress uwtable
define linkonce_odr void @_ZN3url22AppendUTF8EscapedValueEjPNS_12CanonOutputTIcEE(i32 noundef %0, ptr noundef %1) #4 comdat {
  %3 = alloca i32, align 4
  %4 = alloca ptr, align 8
  store i32 %0, ptr %3, align 4, !tbaa !8
  store ptr %1, ptr %4, align 8, !tbaa !12
  %5 = load i32, ptr %3, align 4, !tbaa !8
  %6 = load ptr, ptr %4, align 8, !tbaa !12
  call void @_ZN3url12DoAppendUTF8INS_12CanonOutputTIcEETnPFvhPT_EXadL_ZNS_17AppendEscapedCharIhcEEvS3_PNS1_IT0_EEEEEEvjS4_(i32 noundef %5, ptr noundef %6)
  ret void
}

; Function Attrs: mustprogress uwtable
define noundef zeroext i1 @_ZN3url11ReadUTFCharEPKtPiiPj(ptr noundef %0, ptr noundef %1, i32 noundef %2, ptr noundef %3) #0 {
  %5 = alloca i1, align 1
  %6 = alloca ptr, align 8
  %7 = alloca ptr, align 8
  %8 = alloca i32, align 4
  %9 = alloca ptr, align 8
  store ptr %0, ptr %6, align 8, !tbaa !17
  store ptr %1, ptr %7, align 8, !tbaa !22
  store i32 %2, ptr %8, align 4, !tbaa !8
  store ptr %3, ptr %9, align 8, !tbaa !22
  %10 = load ptr, ptr %6, align 8, !tbaa !17
  %11 = load i32, ptr %8, align 4, !tbaa !8
  %12 = load ptr, ptr %7, align 8, !tbaa !22
  %13 = load ptr, ptr %9, align 8, !tbaa !22
  %14 = call noundef zeroext i1 @_ZN4base20ReadUnicodeCharacterEPKtiPiPj(ptr noundef %10, i32 noundef %11, ptr noundef %12, ptr noundef %13)
  br i1 %14, label %15, label %19

15:                                               ; preds = %4
  %16 = load ptr, ptr %9, align 8, !tbaa !22
  %17 = load i32, ptr %16, align 4, !tbaa !8
  %18 = call noundef zeroext i1 @_ZN4base16IsValidCharacterEj(i32 noundef %17)
  br i1 %18, label %21, label %19

19:                                               ; preds = %15, %4
  %20 = load ptr, ptr %9, align 8, !tbaa !22
  store i32 65533, ptr %20, align 4, !tbaa !8
  store i1 false, ptr %5, align 1
  br label %22

21:                                               ; preds = %15
  store i1 true, ptr %5, align 1
  br label %22

22:                                               ; preds = %21, %19
  %23 = load i1, ptr %5, align 1
  ret i1 %23
}

; Function Attrs: mustprogress uwtable
define linkonce_odr void @_ZN3url12CanonOutputTIcE9push_backEc(ptr noundef nonnull align 8 dereferenceable(24) %0, i8 noundef signext %1) #0 comdat align 2 {
  %3 = alloca ptr, align 8
  %4 = alloca i8, align 1
  store ptr %0, ptr %3, align 8, !tbaa !12
  store i8 %1, ptr %4, align 1, !tbaa !14
  %5 = load ptr, ptr %3, align 8
  %6 = getelementptr inbounds nuw %"class.url::CanonOutputT", ptr %5, i32 0, i32 3
  %7 = load i32, ptr %6, align 4, !tbaa !77
  %8 = getelementptr inbounds nuw %"class.url::CanonOutputT", ptr %5, i32 0, i32 2
  %9 = load i32, ptr %8, align 8, !tbaa !78
  %10 = icmp slt i32 %7, %9
  br i1 %10, label %11, label %22

11:                                               ; preds = %2
  %12 = load i8, ptr %4, align 1, !tbaa !14
  %13 = getelementptr inbounds nuw %"class.url::CanonOutputT", ptr %5, i32 0, i32 1
  %14 = load ptr, ptr %13, align 8, !tbaa !72
  %15 = getelementptr inbounds nuw %"class.url::CanonOutputT", ptr %5, i32 0, i32 3
  %16 = load i32, ptr %15, align 4, !tbaa !77
  %17 = sext i32 %16 to i64
  %18 = getelementptr inbounds i8, ptr %14, i64 %17
  store i8 %12, ptr %18, align 1, !tbaa !14
  %19 = getelementptr inbounds nuw %"class.url::CanonOutputT", ptr %5, i32 0, i32 3
  %20 = load i32, ptr %19, align 4, !tbaa !77
  %21 = add nsw i32 %20, 1
  store i32 %21, ptr %19, align 4, !tbaa !77
  br label %36

22:                                               ; preds = %2
  %23 = call noundef zeroext i1 @_ZN3url12CanonOutputTIcE4GrowEi(ptr noundef nonnull align 8 dereferenceable(24) %5, i32 noundef 1)
  br i1 %23, label %25, label %24

24:                                               ; preds = %22
  br label %36

25:                                               ; preds = %22
  %26 = load i8, ptr %4, align 1, !tbaa !14
  %27 = getelementptr inbounds nuw %"class.url::CanonOutputT", ptr %5, i32 0, i32 1
  %28 = load ptr, ptr %27, align 8, !tbaa !72
  %29 = getelementptr inbounds nuw %"class.url::CanonOutputT", ptr %5, i32 0, i32 3
  %30 = load i32, ptr %29, align 4, !tbaa !77
  %31 = sext i32 %30 to i64
  %32 = getelementptr inbounds i8, ptr %28, i64 %31
  store i8 %26, ptr %32, align 1, !tbaa !14
  %33 = getelementptr inbounds nuw %"class.url::CanonOutputT", ptr %5, i32 0, i32 3
  %34 = load i32, ptr %33, align 4, !tbaa !77
  %35 = add nsw i32 %34, 1
  store i32 %35, ptr %33, align 4, !tbaa !77
  br label %36

36:                                               ; preds = %25, %24, %11
  ret void
}

; Function Attrs: inlinehint mustprogress uwtable
define linkonce_odr noundef zeroext i1 @_ZN3url21AppendUTF8EscapedCharEPKtPiiPNS_12CanonOutputTIcEE(ptr noundef %0, ptr noundef %1, i32 noundef %2, ptr noundef %3) #4 comdat {
  %5 = alloca ptr, align 8
  %6 = alloca ptr, align 8
  %7 = alloca i32, align 4
  %8 = alloca ptr, align 8
  %9 = alloca i32, align 4
  %10 = alloca i8, align 1
  store ptr %0, ptr %5, align 8, !tbaa !17
  store ptr %1, ptr %6, align 8, !tbaa !22
  store i32 %2, ptr %7, align 4, !tbaa !8
  store ptr %3, ptr %8, align 8, !tbaa !12
  call void @llvm.lifetime.start.p0(i64 4, ptr %9) #8
  call void @llvm.lifetime.start.p0(i64 1, ptr %10) #8
  %11 = load ptr, ptr %5, align 8, !tbaa !17
  %12 = load ptr, ptr %6, align 8, !tbaa !22
  %13 = load i32, ptr %7, align 4, !tbaa !8
  %14 = call noundef zeroext i1 @_ZN3url11ReadUTFCharEPKtPiiPj(ptr noundef %11, ptr noundef %12, i32 noundef %13, ptr noundef %9)
  %15 = zext i1 %14 to i8
  store i8 %15, ptr %10, align 1, !tbaa !26
  %16 = load i32, ptr %9, align 4, !tbaa !8
  %17 = load ptr, ptr %8, align 8, !tbaa !12
  call void @_ZN3url22AppendUTF8EscapedValueEjPNS_12CanonOutputTIcEE(i32 noundef %16, ptr noundef %17)
  %18 = load i8, ptr %10, align 1, !tbaa !26, !range !28, !noundef !29
  %19 = trunc i8 %18 to i1
  call void @llvm.lifetime.end.p0(i64 1, ptr %10) #8
  call void @llvm.lifetime.end.p0(i64 4, ptr %9) #8
  ret i1 %19
}

; Function Attrs: mustprogress uwtable
define internal void @_ZN3url12_GLOBAL__N_127DoAppendInvalidNarrowStringIttEEvPKT_iiPNS_12CanonOutputTIcEE(ptr noundef %0, i32 noundef %1, i32 noundef %2, ptr noundef %3) #0 {
  %5 = alloca ptr, align 8
  %6 = alloca i32, align 4
  %7 = alloca i32, align 4
  %8 = alloca ptr, align 8
  %9 = alloca i32, align 4
  %10 = alloca i16, align 2
  store ptr %0, ptr %5, align 8, !tbaa !17
  store i32 %1, ptr %6, align 4, !tbaa !8
  store i32 %2, ptr %7, align 4, !tbaa !8
  store ptr %3, ptr %8, align 8, !tbaa !12
  call void @llvm.lifetime.start.p0(i64 4, ptr %9) #8
  %11 = load i32, ptr %6, align 4, !tbaa !8
  store i32 %11, ptr %9, align 4, !tbaa !8
  br label %12

12:                                               ; preds = %49, %4
  %13 = load i32, ptr %9, align 4, !tbaa !8
  %14 = load i32, ptr %7, align 4, !tbaa !8
  %15 = icmp slt i32 %13, %14
  br i1 %15, label %17, label %16

16:                                               ; preds = %12
  call void @llvm.lifetime.end.p0(i64 4, ptr %9) #8
  br label %52

17:                                               ; preds = %12
  call void @llvm.lifetime.start.p0(i64 2, ptr %10) #8
  %18 = load ptr, ptr %5, align 8, !tbaa !17
  %19 = load i32, ptr %9, align 4, !tbaa !8
  %20 = sext i32 %19 to i64
  %21 = getelementptr inbounds i16, ptr %18, i64 %20
  %22 = load i16, ptr %21, align 2, !tbaa !19
  store i16 %22, ptr %10, align 2, !tbaa !19
  %23 = load i16, ptr %10, align 2, !tbaa !19
  %24 = zext i16 %23 to i32
  %25 = icmp sge i32 %24, 128
  br i1 %25, label %26, label %31

26:                                               ; preds = %17
  %27 = load ptr, ptr %5, align 8, !tbaa !17
  %28 = load i32, ptr %7, align 4, !tbaa !8
  %29 = load ptr, ptr %8, align 8, !tbaa !12
  %30 = call noundef zeroext i1 @_ZN3url21AppendUTF8EscapedCharEPKtPiiPNS_12CanonOutputTIcEE(ptr noundef %27, ptr noundef %9, i32 noundef %28, ptr noundef %29)
  br label %48

31:                                               ; preds = %17
  %32 = load i16, ptr %10, align 2, !tbaa !19
  %33 = zext i16 %32 to i32
  %34 = icmp sle i32 %33, 32
  br i1 %34, label %39, label %35

35:                                               ; preds = %31
  %36 = load i16, ptr %10, align 2, !tbaa !19
  %37 = zext i16 %36 to i32
  %38 = icmp eq i32 %37, 127
  br i1 %38, label %39, label %43

39:                                               ; preds = %35, %31
  %40 = load i16, ptr %10, align 2, !tbaa !19
  %41 = trunc i16 %40 to i8
  %42 = load ptr, ptr %8, align 8, !tbaa !12
  call void @_ZN3url17AppendEscapedCharIhcEEvT_PNS_12CanonOutputTIT0_EE(i8 noundef zeroext %41, ptr noundef %42)
  br label %47

43:                                               ; preds = %35
  %44 = load ptr, ptr %8, align 8, !tbaa !12
  %45 = load i16, ptr %10, align 2, !tbaa !19
  %46 = trunc i16 %45 to i8
  call void @_ZN3url12CanonOutputTIcE9push_backEc(ptr noundef nonnull align 8 dereferenceable(24) %44, i8 noundef signext %46)
  br label %47

47:                                               ; preds = %43, %39
  br label %48

48:                                               ; preds = %47, %26
  call void @llvm.lifetime.end.p0(i64 2, ptr %10) #8
  br label %49

49:                                               ; preds = %48
  %50 = load i32, ptr %9, align 4, !tbaa !8
  %51 = add nsw i32 %50, 1
  store i32 %51, ptr %9, align 4, !tbaa !8
  br label %12, !llvm.loop !25

52:                                               ; preds = %16
  ret void
}

; Function Attrs: mustprogress uwtable
define void @_ZN3url25AppendInvalidNarrowStringEPKtiiPNS_12CanonOutputTIcEE(ptr noundef %0, i32 noundef %1, i32 noundef %2, ptr noundef %3) #0 {
  %5 = alloca ptr, align 8
  %6 = alloca i32, align 4
  %7 = alloca i32, align 4
  %8 = alloca ptr, align 8
  store ptr %0, ptr %5, align 8, !tbaa !17
  store i32 %1, ptr %6, align 4, !tbaa !8
  store i32 %2, ptr %7, align 4, !tbaa !8
  store ptr %3, ptr %8, align 8, !tbaa !12
  %9 = load ptr, ptr %5, align 8, !tbaa !17
  %10 = load i32, ptr %6, align 4, !tbaa !8
  %11 = load i32, ptr %7, align 4, !tbaa !8
  %12 = load ptr, ptr %8, align 8, !tbaa !12
  call void @_ZN3url12_GLOBAL__N_127DoAppendInvalidNarrowStringIttEEvPKT_iiPNS_12CanonOutputTIcEE(ptr noundef %9, i32 noundef %10, i32 noundef %11, ptr noundef %12)
  ret void
}