; Function Attrs: mustprogress uwtable
define void @_ZN3url25AppendInvalidNarrowStringEPKtiiPNS_12CanonOutputTIcEE(ptr noundef %0, i32 noundef %1, i32 noundef %2, ptr noundef %3) local_unnamed_addr #0 {
  %5 = alloca i32, align 4
  %6 = alloca i32, align 4
  call void @llvm.lifetime.start.p0(i64 4, ptr nonnull %6) #7
  store i32 %1, ptr %6, align 4, !tbaa !3
  %7 = icmp slt i32 %1, %2
  br i1 %7, label %.lr.ph.i, label %_ZN3url12_GLOBAL__N_127DoAppendInvalidNarrowStringIttEEvPKT_iiPNS_12CanonOutputTIcEE.exit

.lr.ph.i:                                         ; preds = %4
  %8 = getelementptr inbounds nuw i8, ptr %3, i64 20
  %9 = getelementptr inbounds nuw i8, ptr %3, i64 16
  %.sink3.in.i.i = getelementptr inbounds nuw i8, ptr %3, i64 8
  br label %10

10:                                               ; preds = %_ZN3url12CanonOutputTIcE9push_backEc.exit.i, %.lr.ph.i
  %storemerge17.i = phi i32 [ %1, %.lr.ph.i ], [ %49, %_ZN3url12CanonOutputTIcE9push_backEc.exit.i ]
  %11 = sext i32 %storemerge17.i to i64
  %12 = getelementptr inbounds i16, ptr %0, i64 %11
  %13 = load i16, ptr %12, align 2, !tbaa !19
  %14 = icmp ugt i16 %13, 127
  br i1 %14, label %15, label %26

15:                                               ; preds = %10
  call void @llvm.lifetime.start.p0(i64 4, ptr nonnull %5) #7
  %16 = call noundef zeroext i1 @_ZN4base20ReadUnicodeCharacterEPKtiPiPj(ptr noundef nonnull %0, i32 noundef %2, ptr noundef nonnull %6, ptr noundef nonnull %5)
  br i1 %16, label %17, label %_ZN4base16IsValidCharacterEj.exit.thread6.i.i.i

17:                                               ; preds = %15
  %18 = load i32, ptr %5, align 4, !tbaa !3
  %19 = icmp ult i32 %18, 55296
  %20 = add i32 %18, -57344
  %or.cond.i.i.i.i = icmp ult i32 %20, 7632
  %or.cond9.i.i.i.i = or i1 %19, %or.cond.i.i.i.i
  br i1 %or.cond9.i.i.i.i, label %_ZN3url21AppendUTF8EscapedCharEPKtPiiPNS_12CanonOutputTIcEE.exit.i, label %21

21:                                               ; preds = %17
  %22 = add i32 %18, -65008
  %or.cond3.i.i.i.i = icmp ult i32 %22, 1049104
  %23 = and i32 %18, 65534
  %24 = icmp ne i32 %23, 65534
  %or.cond.i.i.i = and i1 %or.cond3.i.i.i.i, %24
  br i1 %or.cond.i.i.i, label %_ZN3url21AppendUTF8EscapedCharEPKtPiiPNS_12CanonOutputTIcEE.exit.i, label %_ZN4base16IsValidCharacterEj.exit.thread6.i.i.i

_ZN4base16IsValidCharacterEj.exit.thread6.i.i.i:  ; preds = %21, %15
  store i32 65533, ptr %5, align 4, !tbaa !3
  br label %_ZN3url21AppendUTF8EscapedCharEPKtPiiPNS_12CanonOutputTIcEE.exit.i

_ZN3url21AppendUTF8EscapedCharEPKtPiiPNS_12CanonOutputTIcEE.exit.i: ; preds = %_ZN4base16IsValidCharacterEj.exit.thread6.i.i.i, %21, %17
  %25 = phi i32 [ 65533, %_ZN4base16IsValidCharacterEj.exit.thread6.i.i.i ], [ %18, %17 ], [ %18, %21 ]
  call void @_ZN3url12DoAppendUTF8INS_12CanonOutputTIcEETnPFvhPT_EXadL_ZNS_17AppendEscapedCharIhcEEvS3_PNS1_IT0_EEEEEEvjS4_(i32 noundef %25, ptr noundef %3)
  call void @llvm.lifetime.end.p0(i64 4, ptr nonnull %5) #7
  br label %_ZN3url12CanonOutputTIcE9push_backEc.exit.i

26:                                               ; preds = %10
  %27 = icmp samesign ult i16 %13, 33
  %28 = icmp eq i16 %13, 127
  %or.cond.i = or i1 %27, %28
  %29 = trunc nuw i16 %13 to i8
  br i1 %or.cond.i, label %30, label %31

30:                                               ; preds = %26
  call void @_ZN3url17AppendEscapedCharIhcEEvT_PNS_12CanonOutputTIT0_EE(i8 noundef zeroext %29, ptr noundef %3)
  br label %_ZN3url12CanonOutputTIcE9push_backEc.exit.i

31:                                               ; preds = %26
  %32 = load i32, ptr %8, align 4, !tbaa !8
  %33 = load i32, ptr %9, align 8, !tbaa !12
  %34 = icmp slt i32 %32, %33
  br i1 %34, label %_ZN3url12CanonOutputTIcE4GrowEi.exit.sink.split.i.i, label %select.unfold.i.preheader.i.i

select.unfold.i.preheader.i.i:                    ; preds = %31
  %35 = icmp eq i32 %33, 0
  %spec.select = select i1 %35, i32 16, i32 %33
  br label %select.unfold.i.i.i

select.unfold.i.i.i:                              ; preds = %select.unfold.i.preheader.i.i, %37
  %.0.i.i16.i = phi i32 [ %38, %37 ], [ %spec.select, %select.unfold.i.preheader.i.i ]
  %36 = icmp slt i32 %.0.i.i16.i, 1073741824
  br i1 %36, label %37, label %_ZN3url12CanonOutputTIcE9push_backEc.exit.i

37:                                               ; preds = %select.unfold.i.i.i
  %38 = shl nsw i32 %.0.i.i16.i, 1
  %.not.i.i = icmp sgt i32 %38, %33
  br i1 %.not.i.i, label %39, label %select.unfold.i.i.i, !llvm.loop !13

39:                                               ; preds = %37
  %40 = load ptr, ptr %3, align 8, !tbaa !15
  %41 = getelementptr inbounds nuw i8, ptr %40, i64 16
  %42 = load ptr, ptr %41, align 8
  call void %42(ptr noundef nonnull align 8 dereferenceable(24) %3, i32 noundef %38)
  %43 = load i32, ptr %8, align 4, !tbaa !8
  br label %_ZN3url12CanonOutputTIcE4GrowEi.exit.sink.split.i.i

_ZN3url12CanonOutputTIcE4GrowEi.exit.sink.split.i.i: ; preds = %39, %31
  %.sink.i.i = phi i32 [ %43, %39 ], [ %32, %31 ]
  %.sink3.i.i = load ptr, ptr %.sink3.in.i.i, align 8, !tbaa !17
  %44 = sext i32 %.sink.i.i to i64
  %45 = getelementptr inbounds i8, ptr %.sink3.i.i, i64 %44
  store i8 %29, ptr %45, align 1, !tbaa !7
  %46 = load i32, ptr %8, align 4, !tbaa !8
  %47 = add nsw i32 %46, 1
  store i32 %47, ptr %8, align 4, !tbaa !8
  br label %_ZN3url12CanonOutputTIcE9push_backEc.exit.i

_ZN3url12CanonOutputTIcE9push_backEc.exit.i:      ; preds = %select.unfold.i.i.i, %_ZN3url12CanonOutputTIcE4GrowEi.exit.sink.split.i.i, %30, %_ZN3url21AppendUTF8EscapedCharEPKtPiiPNS_12CanonOutputTIcEE.exit.i
  %48 = load i32, ptr %6, align 4, !tbaa !3
  %49 = add nsw i32 %48, 1
  store i32 %49, ptr %6, align 4, !tbaa !3
  %50 = icmp slt i32 %49, %2
  br i1 %50, label %10, label %_ZN3url12_GLOBAL__N_127DoAppendInvalidNarrowStringIttEEvPKT_iiPNS_12CanonOutputTIcEE.exit, !llvm.loop !23

_ZN3url12_GLOBAL__N_127DoAppendInvalidNarrowStringIttEEvPKT_iiPNS_12CanonOutputTIcEE.exit: ; preds = %_ZN3url12CanonOutputTIcE9push_backEc.exit.i, %4
  call void @llvm.lifetime.end.p0(i64 4, ptr nonnull %6) #7
  ret void
}